; Function Attrs: mustprogress nounwind uwtable
define dso_local void @_ZNSt3__14__fs10filesystem16filesystem_errorD0Ev(ptr noundef nonnull align 8 dereferenceable(48) initializes((0, 8)) %0) unnamed_addr #0 align 2 {
  store ptr getelementptr inbounds nuw inrange(-16, 24) (i8, ptr @_ZTVNSt3__14__fs10filesystem16filesystem_errorE, i64 16), ptr %0, align 8, !tbaa !4
  %2 = getelementptr inbounds nuw i8, ptr %0, i64 40
  %3 = load ptr, ptr %2, align 8, !tbaa !7
  %.not.i.i = icmp eq ptr %3, null
  br i1 %.not.i.i, label %_ZNSt3__14__fs10filesystem16filesystem_errorD2Ev.exit, label %4

4:                                                ; preds = %1
  %5 = getelementptr inbounds nuw i8, ptr %3, i64 8
  %6 = atomicrmw add ptr %5, i64 -1 acq_rel, align 8
  %7 = icmp eq i64 %6, 0
  br i1 %7, label %8, label %_ZNSt3__14__fs10filesystem16filesystem_errorD2Ev.exit

8:                                                ; preds = %4
  %9 = load ptr, ptr %3, align 8, !tbaa !4
  %10 = getelementptr inbounds nuw i8, ptr %9, i64 16
  %11 = load ptr, ptr %10, align 8
  tail call void %11(ptr noundef nonnull align 8 dereferenceable(24) %3) #20
  tail call void @_ZNSt3__119__shared_weak_count14__release_weakEv(ptr noundef nonnull align 8 dereferenceable(24) %3) #20
  br label %_ZNSt3__14__fs10filesystem16filesystem_errorD2Ev.exit

_ZNSt3__14__fs10filesystem16filesystem_errorD2Ev.exit: ; preds = %1, %4, %8
  tail call void @_ZNSt3__112system_errorD2Ev(ptr noundef nonnull align 8 dereferenceable(48) %0) #20
  tail call void @_ZdlPvm(ptr noundef nonnull %0, i64 noundef 48) #21
  ret void
}